; Function Attrs: mustprogress uwtable
define noundef zeroext i1 @_ZNK32pxrInternal_v0_24__pxrReserved__8TsSpline19IsKeyFrameRedundantEdRKNS_7VtValueE(ptr nocapture noundef nonnull readonly align 8 dereferenceable(16) %0, double noundef %1, ptr noundef nonnull align 8 dereferenceable(16) %2) local_unnamed_addr #3 align 2 {
  %4 = alloca %"class.pxrInternal_v0_24__pxrReserved__::TsLoopParams", align 8
  %5 = alloca %"class.pxrInternal_v0_24__pxrReserved__::TfCallContext", align 8
  %6 = load ptr, ptr %0, align 8
  %7 = tail call noundef nonnull align 8 dereferenceable(24) ptr @_ZNK32pxrInternal_v0_24__pxrReserved__18TsSpline_KeyFrames12GetKeyFramesEv(ptr noundef nonnull align 8 dereferenceable(136) %6)
  %8 = tail call ptr @_ZNK32pxrInternal_v0_24__pxrReserved__13TsKeyFrameMap11lower_boundEd(ptr noundef nonnull align 8 dereferenceable(24) %7, double noundef %1)
  %9 = getelementptr inbounds nuw i8, ptr %7, i64 8
  %10 = load ptr, ptr %9, align 8
  %.not.i = icmp eq ptr %8, %10
  br i1 %.not.i, label %_ZNK32pxrInternal_v0_24__pxrReserved__13TsKeyFrameMap4findERKd.exit.thread, label %11

11:                                               ; preds = %3
  %12 = getelementptr inbounds nuw i8, ptr %8, i64 8
  %13 = load double, ptr %12, align 8
  %14 = fcmp une double %13, %1
  br i1 %14, label %_ZNK32pxrInternal_v0_24__pxrReserved__13TsKeyFrameMap4findERKd.exit.thread, label %19

_ZNK32pxrInternal_v0_24__pxrReserved__13TsKeyFrameMap4findERKd.exit.thread: ; preds = %11, %3
  store ptr @.str.8, ptr %5, align 8
  %15 = getelementptr inbounds nuw i8, ptr %5, i64 8
  store ptr @__func__._ZNK32pxrInternal_v0_24__pxrReserved__8TsSpline19IsKeyFrameRedundantEdRKNS_7VtValueE, ptr %15, align 8
  %16 = getelementptr inbounds nuw i8, ptr %5, i64 16
  store i64 632, ptr %16, align 8
  %17 = getelementptr inbounds nuw i8, ptr %5, i64 24
  store ptr @__PRETTY_FUNCTION__._ZNK32pxrInternal_v0_24__pxrReserved__8TsSpline19IsKeyFrameRedundantEdRKNS_7VtValueE, ptr %17, align 8
  %18 = getelementptr inbounds nuw i8, ptr %5, i64 32
  store i8 0, ptr %18, align 8
  call void (ptr, i32, ptr, ...) @_ZN32pxrInternal_v0_24__pxrReserved__18Tf_PostErrorHelperERKNS_13TfCallContextENS_16TfDiagnosticTypeEPKcz(ptr noundef nonnull align 8 dereferenceable(33) %5, i32 noundef 1, ptr noundef nonnull @.str.12, double noundef %1)
  br label %25

19:                                               ; preds = %11
  call void @llvm.lifetime.start.p0(i64 80, ptr nonnull %4)
  %20 = load ptr, ptr %0, align 8
  %21 = tail call noundef nonnull align 8 dereferenceable(24) ptr @_ZNK32pxrInternal_v0_24__pxrReserved__18TsSpline_KeyFrames12GetKeyFramesEv(ptr noundef nonnull align 8 dereferenceable(136) %20)
  %22 = load ptr, ptr %0, align 8, !noalias !70
  %23 = tail call noundef nonnull align 8 dereferenceable(80) ptr @_ZNK32pxrInternal_v0_24__pxrReserved__18TsSpline_KeyFrames13GetLoopParamsEv(ptr noundef nonnull align 8 dereferenceable(136) %22), !noalias !70
  call void @llvm.memcpy.p0.p0.i64(ptr noundef nonnull align 8 dereferenceable(80) %4, ptr noundef nonnull align 8 dereferenceable(80) %23, i64 80, i1 false)
  %24 = call noundef zeroext i1 @_ZN32pxrInternal_v0_24__pxrReserved__22Ts_IsKeyFrameRedundantERKNS_13TsKeyFrameMapERKNS_10TsKeyFrameERKNS_12TsLoopParamsERKNS_7VtValueE(ptr noundef nonnull align 8 dereferenceable(24) %21, ptr noundef nonnull align 8 dereferenceable(72) %8, ptr noundef nonnull align 8 dereferenceable(80) %4, ptr noundef nonnull align 8 dereferenceable(16) %2)
  call void @llvm.lifetime.end.p0(i64 80, ptr nonnull %4)
  br label %25

25:                                               ; preds = %19, %_ZNK32pxrInternal_v0_24__pxrReserved__13TsKeyFrameMap4findERKd.exit.thread
  %.0 = phi i1 [ false, %_ZNK32pxrInternal_v0_24__pxrReserved__13TsKeyFrameMap4findERKd.exit.thread ], [ %24, %19 ]
  ret i1 %.0
}